; ModuleID = 'bench/llvm/original/Use.cpp.ll'
source_filename = "bench/llvm/original/Use.cpp.ll"
target datalayout = "e-m:e-p270:32:32-p271:32:32-p272:64:64-i64:64-i128:128-f80:128-n8:16:32:64-S128"
target triple = "x86_64-pc-linux-gnu"

%"class.llvm::Use" = type { ptr, ptr, ptr, ptr }

@_ZN4llvm24DisableABIBreakingChecksE = external global i32, align 4
@_ZN4llvm30VerifyDisableABIBreakingChecksE = weak hidden local_unnamed_addr global ptr @_ZN4llvm24DisableABIBreakingChecksE, align 8

; Function Attrs: mustprogress nofree norecurse nosync nounwind willreturn memory(write, argmem: readwrite, inaccessiblemem: none) uwtable
define dso_local void @_ZN4llvm3Use4swapERS0_(ptr noundef nonnull align 8 dereferenceable(32) %0, ptr noundef nonnull align 8 dereferenceable(32) %1) local_unnamed_addr #0 align 2 {
  %3 = load ptr, ptr %0, align 8
  %4 = load ptr, ptr %1, align 8
  %5 = icmp eq ptr %3, %4
  br i1 %5, label %24, label %6

6:                                                ; preds = %2
  store ptr %4, ptr %0, align 8
  store ptr %3, ptr %1, align 8
  %7 = getelementptr inbounds nuw i8, ptr %0, i64 8
  %8 = getelementptr inbounds nuw i8, ptr %1, i64 8
  %9 = load ptr, ptr %7, align 8
  %10 = load ptr, ptr %8, align 8
  store ptr %10, ptr %7, align 8
  store ptr %9, ptr %8, align 8
  %11 = getelementptr inbounds nuw i8, ptr %0, i64 16
  %12 = getelementptr inbounds nuw i8, ptr %1, i64 16
  %13 = load ptr, ptr %11, align 8
  %14 = load ptr, ptr %12, align 8
  store ptr %14, ptr %11, align 8
  store ptr %13, ptr %12, align 8
  %15 = load ptr, ptr %11, align 8
  store ptr %0, ptr %15, align 8
  %16 = load ptr, ptr %7, align 8
  %.not = icmp eq ptr %16, null
  br i1 %.not, label %19, label %17

17:                                               ; preds = %6
  %18 = getelementptr inbounds nuw i8, ptr %16, i64 16
  store ptr %7, ptr %18, align 8
  br label %19

19:                                               ; preds = %17, %6
  %20 = load ptr, ptr %12, align 8
  store ptr %1, ptr %20, align 8
  %21 = load ptr, ptr %8, align 8
  %.not11 = icmp eq ptr %21, null
  br i1 %.not11, label %24, label %22

22:                                               ; preds = %19
  %23 = getelementptr inbounds nuw i8, ptr %21, i64 16
  store ptr %8, ptr %23, align 8
  br label %24

24:                                               ; preds = %2, %22, %19
  ret void
}

; Function Attrs: mustprogress nofree norecurse nosync nounwind willreturn memory(read, inaccessiblemem: none) uwtable
define dso_local noundef i32 @_ZNK4llvm3Use12getOperandNoEv(ptr noundef nonnull align 8 dereferenceable(32) %0) local_unnamed_addr #1 align 2 {
  %2 = getelementptr inbounds nuw i8, ptr %0, i64 24
  %3 = load ptr, ptr %2, align 8
  %4 = getelementptr inbounds nuw i8, ptr %3, i64 4
  %5 = load i32, ptr %4, align 4
  %6 = and i32 %5, 1073741824
  %.not.i.i.i = icmp eq i32 %6, 0
  br i1 %.not.i.i.i, label %10, label %7

7:                                                ; preds = %1
  %8 = getelementptr inbounds i8, ptr %3, i64 -8
  %9 = load ptr, ptr %8, align 8
  br label %_ZN4llvm4User8op_beginEv.exit

10:                                               ; preds = %1
  %11 = and i32 %5, 134217727
  %12 = zext nneg i32 %11 to i64
  %13 = sub nsw i64 0, %12
  %14 = getelementptr inbounds %"class.llvm::Use", ptr %3, i64 %13
  br label %_ZN4llvm4User8op_beginEv.exit

_ZN4llvm4User8op_beginEv.exit:                    ; preds = %7, %10
  %15 = phi ptr [ %9, %7 ], [ %14, %10 ]
  %16 = ptrtoint ptr %0 to i64
  %17 = ptrtoint ptr %15 to i64
  %18 = sub i64 %16, %17
  %19 = lshr exact i64 %18, 5
  %20 = trunc i64 %19 to i32
  ret i32 %20
}

; Function Attrs: mustprogress nounwind uwtable
define dso_local void @_ZN4llvm3Use3zapEPS0_PKS0_b(ptr noundef %0, ptr noundef readonly %1, i1 noundef zeroext %2) local_unnamed_addr #2 align 2 {
  %.not5 = icmp eq ptr %0, %1
  br i1 %.not5, label %._crit_edge, label %.lr.ph

.lr.ph:                                           ; preds = %3, %_ZN4llvm3UseD2Ev.exit
  %.06 = phi ptr [ %4, %_ZN4llvm3UseD2Ev.exit ], [ %1, %3 ]
  %4 = getelementptr inbounds i8, ptr %.06, i64 -32
  %5 = load ptr, ptr %4, align 8
  %.not.i = icmp eq ptr %5, null
  br i1 %.not.i, label %_ZN4llvm3UseD2Ev.exit, label %6

6:                                                ; preds = %.lr.ph
  %7 = getelementptr inbounds i8, ptr %.06, i64 -24
  %8 = load ptr, ptr %7, align 8
  %9 = getelementptr inbounds i8, ptr %.06, i64 -16
  %10 = load ptr, ptr %9, align 8
  store ptr %8, ptr %10, align 8
  %.not.i.i = icmp eq ptr %8, null
  br i1 %.not.i.i, label %_ZN4llvm3UseD2Ev.exit, label %11

11:                                               ; preds = %6
  %12 = load ptr, ptr %9, align 8
  %13 = getelementptr inbounds nuw i8, ptr %8, i64 16
  store ptr %12, ptr %13, align 8
  br label %_ZN4llvm3UseD2Ev.exit

_ZN4llvm3UseD2Ev.exit:                            ; preds = %.lr.ph, %6, %11
  %.not = icmp eq ptr %0, %4
  br i1 %.not, label %._crit_edge, label %.lr.ph, !llvm.loop !4

._crit_edge:                                      ; preds = %_ZN4llvm3UseD2Ev.exit, %3
  br i1 %2, label %14, label %15

14:                                               ; preds = %._crit_edge
  tail call void @_ZdlPv(ptr noundef %0) #4
  br label %15

15:                                               ; preds = %14, %._crit_edge
  ret void
}

; Function Attrs: nobuiltin nounwind
declare void @_ZdlPv(ptr noundef) local_unnamed_addr #3


!llvm.module.flags = !{!0, !1, !2, !3}

!0 = !{i32 1, !"wchar_size", i32 4}
!1 = !{i32 8, !"PIC Level", i32 2}
!2 = !{i32 7, !"uwtable", i32 2}
!3 = !{i32 7, !"frame-pointer", i32 2}
!4 = distinct !{!4, !5}
!5 = !{!"llvm.loop.mustprogress"}
